target datalayout = "e-m:e-p270:32:32-p271:32:32-p272:64:64-i64:64-i128:128-f80:128-n8:16:32:64-S128"
target triple = "x86_64-pc-linux-gnu"

; Function Attrs: nounwind uwtable
define internal void @Float32_To_Int32_Clip(ptr noundef %0, i32 noundef %1, ptr noundef %2, i32 noundef %3, i32 noundef %4, ptr noundef %5) #0 {
  %7 = alloca ptr, align 8
  %8 = alloca i32, align 4
  %9 = alloca ptr, align 8
  %10 = alloca i32, align 4
  %11 = alloca i32, align 4
  %12 = alloca ptr, align 8
  %13 = alloca ptr, align 8
  %14 = alloca ptr, align 8
  %15 = alloca double, align 8
  store ptr %0, ptr %7, align 8, !tbaa !70
  store i32 %1, ptr %8, align 4, !tbaa !71
  store ptr %2, ptr %9, align 8, !tbaa !70
  store i32 %3, ptr %10, align 4, !tbaa !71
  store i32 %4, ptr %11, align 4, !tbaa !71
  store ptr %5, ptr %12, align 8, !tbaa !73
  call void @llvm.lifetime.start.p0(i64 8, ptr %13) #4
  %16 = load ptr, ptr %9, align 8, !tbaa !70
  store ptr %16, ptr %13, align 8, !tbaa !75
  call void @llvm.lifetime.start.p0(i64 8, ptr %14) #4
  %17 = load ptr, ptr %7, align 8, !tbaa !70
  store ptr %17, ptr %14, align 8, !tbaa !77
  br label %18

18:                                               ; preds = %38, %6
  %19 = load i32, ptr %11, align 4, !tbaa !71
  %20 = add i32 %19, -1
  store i32 %20, ptr %11, align 4, !tbaa !71
  %21 = icmp ne i32 %19, 0
  br i1 %21, label %22, label %51

22:                                               ; preds = %18
  call void @llvm.lifetime.start.p0(i64 8, ptr %15) #4
  %23 = load ptr, ptr %13, align 8, !tbaa !75
  %24 = load float, ptr %23, align 4, !tbaa !79
  %25 = fmul float %24, 0x41E0000000000000
  %26 = fpext float %25 to double
  store double %26, ptr %15, align 8, !tbaa !81
  %27 = load double, ptr %15, align 8, !tbaa !81
  %28 = fcmp olt double %27, 0xC1E0000000000000
  br i1 %28, label %29, label %30

29:                                               ; preds = %22
  br label %38

30:                                               ; preds = %22
  %31 = load double, ptr %15, align 8, !tbaa !81
  %32 = fcmp ogt double %31, 0x41DFFFFFFFC00000
  br i1 %32, label %33, label %34

33:                                               ; preds = %30
  br label %36

34:                                               ; preds = %30
  %35 = load double, ptr %15, align 8, !tbaa !81
  br label %36

36:                                               ; preds = %34, %33
  %37 = phi double [ 0x41DFFFFFFFC00000, %33 ], [ %35, %34 ]
  br label %38

38:                                               ; preds = %36, %29
  %39 = phi double [ 0xC1E0000000000000, %29 ], [ %37, %36 ]
  store double %39, ptr %15, align 8, !tbaa !81
  %40 = load double, ptr %15, align 8, !tbaa !81
  %41 = fptosi double %40 to i32
  %42 = load ptr, ptr %14, align 8, !tbaa !77
  store i32 %41, ptr %42, align 4, !tbaa !71
  %43 = load i32, ptr %10, align 4, !tbaa !71
  %44 = load ptr, ptr %13, align 8, !tbaa !75
  %45 = sext i32 %43 to i64
  %46 = getelementptr inbounds float, ptr %44, i64 %45
  store ptr %46, ptr %13, align 8, !tbaa !75
  %47 = load i32, ptr %8, align 4, !tbaa !71
  %48 = load ptr, ptr %14, align 8, !tbaa !77
  %49 = sext i32 %47 to i64
  %50 = getelementptr inbounds i32, ptr %48, i64 %49
  store ptr %50, ptr %14, align 8, !tbaa !77
  call void @llvm.lifetime.end.p0(i64 8, ptr %15) #4
  br label %18, !llvm.loop !85

51:                                               ; preds = %18
  call void @llvm.lifetime.end.p0(i64 8, ptr %14) #4
  call void @llvm.lifetime.end.p0(i64 8, ptr %13) #4
  ret void
}