; Function Attrs: nofree norecurse nosync nounwind memory(argmem: readwrite) uwtable
define internal void @Float32_To_Int32_Clip(ptr noundef writeonly captures(none) %0, i32 noundef %1, ptr noundef readonly captures(none) %2, i32 noundef %3, i32 noundef %4, ptr readnone captures(none) %5) #2 {
  %.not15 = icmp eq i32 %4, 0
  br i1 %.not15, label %._crit_edge, label %.lr.ph

.lr.ph:                                           ; preds = %6
  %7 = sext i32 %3 to i64
  %8 = sext i32 %1 to i64
  br label %9

9:                                                ; preds = %.lr.ph, %19
  %.in = phi i32 [ %4, %.lr.ph ], [ %10, %19 ]
  %.017 = phi ptr [ %0, %.lr.ph ], [ %22, %19 ]
  %.01216 = phi ptr [ %2, %.lr.ph ], [ %21, %19 ]
  %10 = add i32 %.in, -1
  %11 = load float, ptr %.01216, align 4, !tbaa !68
  %12 = fmul float %11, 0x41E0000000000000
  %13 = fcmp olt float %12, 0xC1E0000000000000
  br i1 %13, label %19, label %14

14:                                               ; preds = %9
  %15 = fpext float %12 to double
  %16 = fcmp ogt double %15, 0x41DFFFFFFFC00000
  %17 = select i1 %16, double 0x41DFFFFFFFC00000, double %15
  %18 = fptosi double %17 to i32
  br label %19

19:                                               ; preds = %9, %14
  %20 = phi i32 [ %18, %14 ], [ -2147483648, %9 ]
  store i32 %20, ptr %.017, align 4, !tbaa !70
  %21 = getelementptr inbounds float, ptr %.01216, i64 %7
  %22 = getelementptr inbounds i32, ptr %.017, i64 %8
  %.not = icmp eq i32 %10, 0
  br i1 %.not, label %._crit_edge, label %9, !llvm.loop !74

._crit_edge:                                      ; preds = %19, %6
  ret void
}